target datalayout = "e-m:e-p270:32:32-p271:32:32-p272:64:64-i64:64-i128:128-f80:128-n8:16:32:64-S128"
target triple = "x86_64-pc-linux-gnu"

%struct._packet_info = type { ptr, ptr, i32, i32, %struct.nstime_t, %struct.nstime_t, %struct.nstime_t, i8, ptr, ptr, ptr, ptr, %struct._address, %struct._address, %struct._address, %struct._address, %struct._address, %struct._address, i32, ptr, i8, [3 x i8], %struct.anon, i32, i32, i32, i32, ptr, i8, ptr, ptr, i16, i16, i32, i32, i16, i32, i32, ptr, ptr, ptr, i8, i8, i16, i16, i16, i32, i16, i16, ptr, ptr, ptr, ptr, ptr, i32, i32 }
%struct.nstime_t = type { i64, i32 }
%struct._address = type { i32, i32, ptr, ptr }
%struct.anon = type { i8, [3 x i8] }

@hf_cpin_code = internal global i32 0, align 4
@hf_cpin_pin = internal global i32 0, align 4
@hf_cpin_newpin = internal global i32 0, align 4
@.str.629 = private unnamed_addr constant [6 x i8] c"READY\00", align 1
@.str.630 = private unnamed_addr constant [38 x i8] c" (MT is not pending for any password)\00", align 1
@.str.631 = private unnamed_addr constant [32 x i8] c" (MT is waiting %s to be given)\00", align 1

; Function Attrs: null_pointer_is_valid sspstrong uwtable
define internal zeroext i1 @dissect_cpin_parameter(ptr noundef %0, ptr noundef %1, ptr noundef %2, i32 noundef %3, i32 noundef %4, i16 noundef zeroext %5, ptr noundef %6, i32 noundef %7, i32 noundef %8, ptr noundef %9, ptr noundef %10) #0 {
  %12 = alloca i1, align 1
  %13 = alloca ptr, align 8
  %14 = alloca ptr, align 8
  %15 = alloca ptr, align 8
  %16 = alloca i32, align 4
  %17 = alloca i32, align 4
  %18 = alloca i16, align 2
  %19 = alloca ptr, align 8
  %20 = alloca i32, align 4
  %21 = alloca i32, align 4
  %22 = alloca ptr, align 8
  %23 = alloca ptr, align 8
  %24 = alloca ptr, align 8
  %25 = alloca i8, align 1
  %26 = alloca ptr, align 8
  %27 = alloca i32, align 4
  store ptr %0, ptr %13, align 8
  store ptr %1, ptr %14, align 8
  store ptr %2, ptr %15, align 8
  store i32 %3, ptr %16, align 4
  store i32 %4, ptr %17, align 4
  store i16 %5, ptr %18, align 2
  store ptr %6, ptr %19, align 8
  store i32 %7, ptr %20, align 4
  store i32 %8, ptr %21, align 4
  store ptr %9, ptr %22, align 8
  store ptr %10, ptr %23, align 8
  call void @llvm.lifetime.start.p0(i64 8, ptr %24) #12
  call void @llvm.lifetime.start.p0(i64 1, ptr %25) #12
  call void @llvm.lifetime.start.p0(i64 8, ptr %26) #12
  %28 = load i32, ptr %17, align 4
  %29 = icmp eq i32 %28, 2
  br i1 %29, label %30, label %34

30:                                               ; preds = %11
  %31 = load i16, ptr %18, align 2
  %32 = zext i16 %31 to i32
  %33 = icmp eq i32 %32, 61
  br i1 %33, label %42, label %34

34:                                               ; preds = %30, %11
  %35 = load i32, ptr %17, align 4
  %36 = icmp eq i32 %35, 1
  br i1 %36, label %37, label %41

37:                                               ; preds = %34
  %38 = load i16, ptr %18, align 2
  %39 = zext i16 %38 to i32
  %40 = icmp eq i32 %39, 58
  br i1 %40, label %42, label %41

41:                                               ; preds = %37, %34
  store i1 false, ptr %12, align 1
  store i32 1, ptr %27, align 4
  br label %96

42:                                               ; preds = %37, %30
  %43 = load i16, ptr %18, align 2
  %44 = zext i16 %43 to i32
  %45 = icmp eq i32 %44, 61
  br i1 %45, label %46, label %64

46:                                               ; preds = %42
  %47 = load i32, ptr %20, align 4
  switch i32 %47, label %62 [
    i32 0, label %48
    i32 1, label %55
  ]

48:                                               ; preds = %46
  %49 = load ptr, ptr %15, align 8
  %50 = load i32, ptr @hf_cpin_pin, align 4
  %51 = load ptr, ptr %13, align 8
  %52 = load i32, ptr %16, align 4
  %53 = load i32, ptr %21, align 4
  %54 = call ptr @proto_tree_add_item(ptr noundef %49, i32 noundef %50, ptr noundef %51, i32 noundef %52, i32 noundef %53, i32 noundef 0)
  br label %63

55:                                               ; preds = %46
  %56 = load ptr, ptr %15, align 8
  %57 = load i32, ptr @hf_cpin_newpin, align 4
  %58 = load ptr, ptr %13, align 8
  %59 = load i32, ptr %16, align 4
  %60 = load i32, ptr %21, align 4
  %61 = call ptr @proto_tree_add_item(ptr noundef %56, i32 noundef %57, ptr noundef %58, i32 noundef %59, i32 noundef %60, i32 noundef 0)
  br label %63

62:                                               ; preds = %46
  store i1 false, ptr %12, align 1
  store i32 1, ptr %27, align 4
  br label %96

63:                                               ; preds = %55, %48
  store i1 true, ptr %12, align 1
  store i32 1, ptr %27, align 4
  br label %96

64:                                               ; preds = %42
  %65 = load i32, ptr %20, align 4
  %66 = icmp eq i32 %65, 0
  br i1 %66, label %67, label %95

67:                                               ; preds = %64
  %68 = load ptr, ptr %15, align 8
  %69 = load i32, ptr @hf_cpin_code, align 4
  %70 = load ptr, ptr %13, align 8
  %71 = load i32, ptr %16, align 4
  %72 = load i32, ptr %21, align 4
  %73 = call ptr @proto_tree_add_item(ptr noundef %68, i32 noundef %69, ptr noundef %70, i32 noundef %71, i32 noundef %72, i32 noundef 0)
  store ptr %73, ptr %24, align 8
  %74 = load ptr, ptr %19, align 8
  %75 = load i32, ptr %21, align 4
  %76 = sext i32 %75 to i64
  %77 = call i32 @g_ascii_strncasecmp(ptr noundef @.str.629, ptr noundef %74, i64 noundef %76)
  %78 = icmp eq i32 %77, 0
  %79 = zext i1 %78 to i8
  store i8 %79, ptr %25, align 1
  %80 = load i8, ptr %25, align 1, !range !14, !noundef !15
  %81 = trunc i8 %80 to i1
  br i1 %81, label %82, label %84

82:                                               ; preds = %67
  %83 = load ptr, ptr %24, align 8
  call void (ptr, ptr, ...) @proto_item_append_text(ptr noundef %83, ptr noundef @.str.630)
  br label %94

84:                                               ; preds = %67
  %85 = load ptr, ptr %14, align 8
  %86 = getelementptr inbounds nuw %struct._packet_info, ptr %85, i32 0, i32 51
  %87 = load ptr, ptr %86, align 8
  %88 = load ptr, ptr %19, align 8
  %89 = load i32, ptr %21, align 4
  %90 = sext i32 %89 to i64
  %91 = call noalias ptr @wmem_strndup(ptr noundef %87, ptr noundef %88, i64 noundef %90)
  store ptr %91, ptr %26, align 8
  %92 = load ptr, ptr %24, align 8
  %93 = load ptr, ptr %26, align 8
  call void (ptr, ptr, ...) @proto_item_append_text(ptr noundef %92, ptr noundef @.str.631, ptr noundef %93)
  br label %94

94:                                               ; preds = %84, %82
  store i1 true, ptr %12, align 1
  store i32 1, ptr %27, align 4
  br label %96

95:                                               ; preds = %64
  store i1 false, ptr %12, align 1
  store i32 1, ptr %27, align 4
  br label %96

96:                                               ; preds = %95, %94, %63, %62, %41
  call void @llvm.lifetime.end.p0(i64 8, ptr %26) #12
  call void @llvm.lifetime.end.p0(i64 1, ptr %25) #12
  call void @llvm.lifetime.end.p0(i64 8, ptr %24) #12
  %97 = load i1, ptr %12, align 1
  ret i1 %97
}