; Function Attrs: null_pointer_is_valid sspstrong uwtable
define internal noundef zeroext i1 @dissect_cpin_parameter(ptr noundef %0, ptr noundef readonly captures(none) %1, ptr noundef %2, i32 noundef %3, i32 noundef %4, i16 noundef zeroext %5, ptr noundef %6, i32 noundef %7, i32 noundef %8, ptr readnone captures(none) %9, ptr readnone captures(none) %10) #0 {
  %12 = icmp eq i32 %4, 2
  %13 = icmp eq i16 %5, 61
  %or.cond = and i1 %12, %13
  br i1 %or.cond, label %18, label %14

14:                                               ; preds = %11
  %15 = icmp eq i32 %4, 1
  %16 = icmp eq i16 %5, 58
  %or.cond5 = and i1 %15, %16
  %17 = icmp eq i32 %7, 0
  %or.cond33 = and i1 %or.cond5, %17
  br i1 %or.cond33, label %25, label %36

18:                                               ; preds = %11
  switch i32 %7, label %36 [
    i32 0, label %19
    i32 1, label %22
  ]

19:                                               ; preds = %18
  %20 = load i32, ptr @hf_cpin_pin, align 4
  %21 = tail call ptr @proto_tree_add_item(ptr noundef %2, i32 noundef %20, ptr noundef %0, i32 noundef %3, i32 noundef %8, i32 noundef 0)
  br label %36

22:                                               ; preds = %18
  %23 = load i32, ptr @hf_cpin_newpin, align 4
  %24 = tail call ptr @proto_tree_add_item(ptr noundef %2, i32 noundef %23, ptr noundef %0, i32 noundef %3, i32 noundef %8, i32 noundef 0)
  br label %36

25:                                               ; preds = %14
  %26 = load i32, ptr @hf_cpin_code, align 4
  %27 = tail call ptr @proto_tree_add_item(ptr noundef %2, i32 noundef %26, ptr noundef %0, i32 noundef %3, i32 noundef %8, i32 noundef 0)
  %28 = sext i32 %8 to i64
  %29 = tail call i32 @g_ascii_strncasecmp(ptr noundef nonnull @.str.629, ptr noundef %6, i64 noundef %28)
  %30 = icmp eq i32 %29, 0
  br i1 %30, label %31, label %32

31:                                               ; preds = %25
  tail call void (ptr, ptr, ...) @proto_item_append_text(ptr noundef %27, ptr noundef nonnull @.str.630)
  br label %36

32:                                               ; preds = %25
  %33 = getelementptr inbounds nuw i8, ptr %1, i64 408
  %34 = load ptr, ptr %33, align 8
  %35 = tail call noalias ptr @wmem_strndup(ptr noundef %34, ptr noundef %6, i64 noundef %28)
  tail call void (ptr, ptr, ...) @proto_item_append_text(ptr noundef %27, ptr noundef nonnull @.str.631, ptr noundef %35)
  br label %36

36:                                               ; preds = %31, %32, %19, %22, %18, %14
  %.0 = phi i1 [ false, %14 ], [ false, %18 ], [ true, %22 ], [ true, %19 ], [ true, %32 ], [ true, %31 ]
  ret i1 %.0
}